target datalayout = "e-m:e-p270:32:32-p271:32:32-p272:64:64-i64:64-i128:128-f80:128-n8:16:32:64-S128"
target triple = "x86_64-pc-linux-gnu"

%struct._asn1_ctx_t = type { i32, i32, i8, ptr, ptr, ptr, ptr, ptr, %struct.anon, %struct.anon.3, %struct.anon.4, ptr }
%struct.anon = type { i32, i8, i8, i8, ptr, ptr, i32, i32, ptr, ptr, ptr, %union.anon.0 }
%union.anon.0 = type { %struct.anon.1 }
%struct.anon.1 = type { ptr }
%struct.anon.3 = type { ptr, ptr, ptr }
%struct.anon.4 = type { i32, i8, ptr, i32, i32, ptr, ptr, ptr, %union.anon.5 }
%union.anon.5 = type { %struct.anon.6 }
%struct.anon.6 = type { ptr }
%struct._packet_info = type { ptr, ptr, i32, i32, %struct.nstime_t, %struct.nstime_t, %struct.nstime_t, i8, ptr, ptr, ptr, ptr, %struct._address, %struct._address, %struct._address, %struct._address, %struct._address, %struct._address, i32, ptr, i8, [3 x i8], %struct.anon.8, i32, i32, i32, i32, ptr, i8, ptr, ptr, i16, i16, i32, i32, i16, i32, i32, ptr, ptr, ptr, i8, i8, i16, i16, i16, i32, i16, i16, ptr, ptr, ptr, ptr, ptr, i32, i32 }
%struct.nstime_t = type { i64, i32 }
%struct._address = type { i32, i32, ptr, ptr }
%struct.anon.8 = type { i8, [3 x i8] }
%struct._ber_choice_t = type { i32, ptr, i8, i32, i32, ptr }

@ett_z3950 = internal global i32 0, align 4
@ett_z3950_PDU = internal global i32 0, align 4
@.str.1759 = private unnamed_addr constant [7 x i8] c"Z39.50\00", align 1
@proto_z3950 = internal global i32 0, align 4
@.str.2153 = private unnamed_addr constant [19 x i8] c"Unknown Z39.50 PDU\00", align 1

; Function Attrs: null_pointer_is_valid sspstrong uwtable
define internal i32 @dissect_z3950_PDU(i1 noundef zeroext %0, ptr noundef %1, i32 noundef %2, ptr noundef %3, ptr noundef %4, i32 noundef %5) #0 {
  %7 = alloca i8, align 1
  %8 = alloca ptr, align 8
  %9 = alloca i32, align 4
  %10 = alloca ptr, align 8
  %11 = alloca ptr, align 8
  %12 = alloca i32, align 4
  %13 = alloca i32, align 4
  %14 = alloca ptr, align 8
  %15 = alloca i32, align 4
  %16 = zext i1 %0 to i8
  store i8 %16, ptr %7, align 1
  store ptr %1, ptr %8, align 8
  store i32 %2, ptr %9, align 4
  store ptr %3, ptr %10, align 8
  store ptr %4, ptr %11, align 8
  store i32 %5, ptr %12, align 4
  call void @llvm.lifetime.start.p0(i64 4, ptr %13) #8
  %17 = load ptr, ptr %10, align 8
  %18 = load ptr, ptr %11, align 8
  %19 = load ptr, ptr %8, align 8
  %20 = load i32, ptr %9, align 4
  %21 = load i32, ptr %12, align 4
  %22 = load i32, ptr @ett_z3950_PDU, align 4
  %23 = call i32 @dissect_ber_choice(ptr noundef %17, ptr noundef %18, ptr noundef %19, i32 noundef %20, ptr noundef @PDU_choice, i32 noundef %21, i32 noundef %22, ptr noundef %13)
  store i32 %23, ptr %9, align 4
  %24 = load i32, ptr %13, align 4
  %25 = icmp sge i32 %24, 0
  br i1 %25, label %26, label %40

26:                                               ; preds = %6
  call void @llvm.lifetime.start.p0(i64 8, ptr %14) #8
  %27 = load ptr, ptr %10, align 8
  %28 = getelementptr inbounds nuw %struct._asn1_ctx_t, ptr %27, i32 0, i32 3
  %29 = load ptr, ptr %28, align 8
  store ptr %29, ptr %14, align 8
  call void @llvm.lifetime.start.p0(i64 4, ptr %15) #8
  %30 = load i32, ptr %13, align 4
  %31 = sext i32 %30 to i64
  %32 = getelementptr [24 x %struct._ber_choice_t], ptr @PDU_choice, i64 0, i64 %31
  %33 = getelementptr inbounds nuw %struct._ber_choice_t, ptr %32, i32 0, i32 3
  %34 = load i32, ptr %33, align 4
  store i32 %34, ptr %15, align 4
  %35 = load ptr, ptr %14, align 8
  %36 = getelementptr inbounds nuw %struct._packet_info, ptr %35, i32 0, i32 1
  %37 = load ptr, ptr %36, align 8
  %38 = load i32, ptr %15, align 4
  %39 = call ptr @val_to_str_const(i32 noundef %38, ptr noundef @z3950_PDU_vals, ptr noundef @.str.2153)
  call void @col_set_str(ptr noundef %37, i32 noundef 25, ptr noundef %39)
  call void @llvm.lifetime.end.p0(i64 4, ptr %15) #8
  call void @llvm.lifetime.end.p0(i64 8, ptr %14) #8
  br label %40

40:                                               ; preds = %26, %6
  %41 = load i32, ptr %9, align 4
  call void @llvm.lifetime.end.p0(i64 4, ptr %13) #8
  ret i32 %41
}

; Function Attrs: null_pointer_is_valid sspstrong uwtable
define internal i32 @dissect_z3950(ptr noundef %0, ptr noundef %1, ptr noundef %2, ptr noundef %3) #0 {
  %5 = alloca ptr, align 8
  %6 = alloca ptr, align 8
  %7 = alloca ptr, align 8
  %8 = alloca ptr, align 8
  %9 = alloca ptr, align 8
  %10 = alloca ptr, align 8
  %11 = alloca i32, align 4
  %12 = alloca %struct._asn1_ctx_t, align 8
  store ptr %0, ptr %5, align 8
  store ptr %1, ptr %6, align 8
  store ptr %2, ptr %7, align 8
  store ptr %3, ptr %8, align 8
  call void @llvm.lifetime.start.p0(i64 8, ptr %9) #8
  store ptr null, ptr %9, align 8
  call void @llvm.lifetime.start.p0(i64 8, ptr %10) #8
  store ptr null, ptr %10, align 8
  call void @llvm.lifetime.start.p0(i64 4, ptr %11) #8
  store i32 0, ptr %11, align 4
  call void @llvm.lifetime.start.p0(i64 208, ptr %12) #8
  %13 = load ptr, ptr %6, align 8
  call void @asn1_ctx_init(ptr noundef %12, i32 noundef 0, i1 noundef zeroext true, ptr noundef %13)
  %14 = load ptr, ptr %6, align 8
  %15 = getelementptr inbounds nuw %struct._packet_info, ptr %14, i32 0, i32 1
  %16 = load ptr, ptr %15, align 8
  call void @col_set_str(ptr noundef %16, i32 noundef 35, ptr noundef @.str.1759)
  %17 = load ptr, ptr %7, align 8
  %18 = load i32, ptr @proto_z3950, align 4
  %19 = load ptr, ptr %5, align 8
  %20 = call ptr @proto_tree_add_item(ptr noundef %17, i32 noundef %18, ptr noundef %19, i32 noundef 0, i32 noundef -1, i32 noundef 0)
  store ptr %20, ptr %9, align 8
  %21 = load ptr, ptr %9, align 8
  %22 = load i32, ptr @ett_z3950, align 4
  %23 = call ptr @proto_item_add_subtree(ptr noundef %21, i32 noundef %22)
  store ptr %23, ptr %10, align 8
  %24 = load ptr, ptr %5, align 8
  %25 = load i32, ptr %11, align 4
  %26 = load ptr, ptr %10, align 8
  %27 = call i32 @dissect_z3950_PDU(i1 noundef zeroext false, ptr noundef %24, i32 noundef %25, ptr noundef %12, ptr noundef %26, i32 noundef -1)
  call void @llvm.lifetime.end.p0(i64 208, ptr %12) #8
  call void @llvm.lifetime.end.p0(i64 4, ptr %11) #8
  call void @llvm.lifetime.end.p0(i64 8, ptr %10) #8
  call void @llvm.lifetime.end.p0(i64 8, ptr %9) #8
  ret i32 %27
}