; Function Attrs: null_pointer_is_valid sspstrong uwtable
define internal i32 @dissect_z3950(ptr noundef %0, ptr noundef %1, ptr noundef %2, ptr readnone captures(none) %3) #0 {
  %5 = alloca i32, align 4
  %6 = alloca %struct._asn1_ctx_t, align 8
  call void @llvm.lifetime.start.p0(i64 208, ptr nonnull %6) #9
  call void @asn1_ctx_init(ptr noundef nonnull %6, i32 noundef 0, i1 noundef zeroext true, ptr noundef %1)
  %7 = getelementptr inbounds nuw i8, ptr %1, i64 8
  %8 = load ptr, ptr %7, align 8
  call void @col_set_str(ptr noundef %8, i32 noundef 35, ptr noundef nonnull @.str.1759)
  %9 = load i32, ptr @proto_z3950, align 4
  %10 = call ptr @proto_tree_add_item(ptr noundef %2, i32 noundef %9, ptr noundef %0, i32 noundef 0, i32 noundef -1, i32 noundef 0)
  %11 = load i32, ptr @ett_z3950, align 4
  %12 = call ptr @proto_item_add_subtree(ptr noundef %10, i32 noundef %11)
  call void @llvm.lifetime.start.p0(i64 4, ptr nonnull %5) #9
  %13 = load i32, ptr @ett_z3950_PDU, align 4
  %14 = call i32 @dissect_ber_choice(ptr noundef nonnull %6, ptr noundef %12, ptr noundef %0, i32 noundef 0, ptr noundef nonnull @PDU_choice, i32 noundef -1, i32 noundef %13, ptr noundef nonnull %5)
  %15 = load i32, ptr %5, align 4
  %16 = icmp sgt i32 %15, -1
  br i1 %16, label %17, label %dissect_z3950_PDU.exit

17:                                               ; preds = %4
  %18 = getelementptr inbounds nuw i8, ptr %6, i64 16
  %19 = load ptr, ptr %18, align 8
  %20 = zext nneg i32 %15 to i64
  %21 = getelementptr [24 x %struct._ber_choice_t], ptr @PDU_choice, i64 0, i64 %20, i32 3
  %22 = load i32, ptr %21, align 4
  %23 = getelementptr inbounds nuw i8, ptr %19, i64 8
  %24 = load ptr, ptr %23, align 8
  %25 = call ptr @val_to_str_const(i32 noundef %22, ptr noundef nonnull @z3950_PDU_vals, ptr noundef nonnull @.str.2153)
  call void @col_set_str(ptr noundef %24, i32 noundef 25, ptr noundef %25)
  br label %dissect_z3950_PDU.exit

dissect_z3950_PDU.exit:                           ; preds = %4, %17
  call void @llvm.lifetime.end.p0(i64 4, ptr nonnull %5) #9
  call void @llvm.lifetime.end.p0(i64 208, ptr nonnull %6) #9
  ret i32 %14
}